target datalayout = "e-m:e-p270:32:32-p271:32:32-p272:64:64-i64:64-i128:128-f80:128-n8:16:32:64-S128"
target triple = "x86_64-pc-linux-gnu"

%struct.job_record = type { i32, ptr, ptr, ptr, ptr, i16, i32, i32, i32, ptr, i32, ptr, ptr, i16, ptr, double, i64, ptr, ptr, ptr, ptr, ptr, ptr, i32, ptr, i32, i64, i64, i32, i32, ptr, i16, i64, i64, i8, i32, ptr, ptr, ptr, ptr, ptr, ptr, ptr, ptr, i32, ptr, ptr, i32, ptr, i32, ptr, i32, ptr, i32, ptr, ptr, ptr, ptr, ptr, ptr, i32, i16, i64, ptr, ptr, ptr, ptr, %struct.acct_policy_limit_set_t, i16, ptr, ptr, ptr, ptr, ptr, i32, ptr, ptr, ptr, ptr, ptr, i32, i32, ptr, ptr, ptr, i16, ptr, ptr, i8, ptr, ptr, i64, i64, i8, i32, i32, i8, i32, ptr, i32, i64, i32, ptr, ptr, ptr, i8, i16, i64, i32, ptr, ptr, ptr, ptr, ptr, i16, i32, ptr, ptr, ptr, ptr, i32, ptr, i32, i16, i64, ptr, i32, i32, ptr, i64, ptr, ptr, i64, i32, i32, i64, i32, i32, ptr, ptr, ptr, ptr, ptr, ptr, ptr, ptr, ptr, ptr, ptr, ptr, i32, ptr, i16, i16, i16, i16, ptr, i32, i32, i8, i64 }
%struct.acct_policy_limit_set_t = type { i16, i16, ptr }

@plugin_inited = internal global i32 0, align 4
@preempt_send_user_signal = external global i8, align 1
@.str.11 = private unnamed_addr constant [59 x i8] c"preempted %pJ has been killed to reclaim resources for %pJ\00", align 1
@.str.12 = private unnamed_addr constant [61 x i8] c"preempted %pJ has been requeued to reclaim resources for %pJ\00", align 1
@.str.13 = private unnamed_addr constant [35 x i8] c"%s: preempted %pJ had to be killed\00", align 1
@__func__.slurm_job_preempt = private unnamed_addr constant [18 x i8] c"slurm_job_preempt\00", align 1
@.str.14 = private unnamed_addr constant [34 x i8] c"%s: preempted %pJ kill failure %s\00", align 1

; Function Attrs: nounwind uwtable
define internal i32 @_job_check_grace(ptr noundef %0, ptr noundef %1) #0 {
  %3 = alloca i32, align 4
  %4 = alloca ptr, align 8
  %5 = alloca ptr, align 8
  store ptr %0, ptr %4, align 8
  store ptr %1, ptr %5, align 8
  %6 = load ptr, ptr %4, align 8
  %7 = getelementptr inbounds nuw %struct.job_record, ptr %6, i32 0, i32 52
  %8 = load ptr, ptr %7, align 8
  %9 = icmp ne ptr %8, null
  br i1 %9, label %10, label %18

10:                                               ; preds = %2
  %11 = load ptr, ptr %4, align 8
  %12 = getelementptr inbounds nuw %struct.job_record, ptr %11, i32 0, i32 52
  %13 = load ptr, ptr %12, align 8
  %14 = load ptr, ptr %5, align 8
  %15 = call i32 @list_for_each_nobreak(ptr noundef %13, ptr noundef @_job_check_grace_internal, ptr noundef %14)
  %16 = icmp sle i32 %15, 0
  %17 = select i1 %16, i32 1, i32 0
  store i32 %17, ptr %3, align 4
  br label %24

18:                                               ; preds = %2
  %19 = load ptr, ptr %4, align 8
  %20 = load ptr, ptr %5, align 8
  %21 = call i32 @_job_check_grace_internal(ptr noundef %19, ptr noundef %20)
  %22 = icmp slt i32 %21, 0
  %23 = select i1 %22, i32 1, i32 0
  store i32 %23, ptr %3, align 4
  br label %24

24:                                               ; preds = %18, %10
  %25 = load i32, ptr %3, align 4
  ret i32 %25
}

; Function Attrs: nounwind uwtable
define dso_local i32 @slurm_job_preempt(ptr noundef %0, ptr noundef %1, i16 noundef zeroext %2, i1 noundef zeroext %3) #0 {
  %5 = alloca i32, align 4
  %6 = alloca ptr, align 8
  %7 = alloca ptr, align 8
  %8 = alloca i16, align 2
  %9 = alloca i8, align 1
  %10 = alloca i32, align 4
  %11 = alloca i32, align 4
  store ptr %0, ptr %6, align 8
  store ptr %1, ptr %7, align 8
  store i16 %2, ptr %8, align 2
  %12 = zext i1 %3 to i8
  store i8 %12, ptr %9, align 1
  call void @llvm.lifetime.start.p0(i64 4, ptr %10) #6
  store i32 -1, ptr %10, align 4
  %13 = load i32, ptr @plugin_inited, align 4
  %14 = icmp eq i32 %13, 1
  br i1 %14, label %15, label %17

15:                                               ; preds = %4
  %16 = load i32, ptr %10, align 4
  store i32 %16, ptr %5, align 4
  store i32 1, ptr %11, align 4
  br label %145

17:                                               ; preds = %4
  %18 = load ptr, ptr %6, align 8
  %19 = load ptr, ptr %7, align 8
  %20 = call i32 @_job_check_grace(ptr noundef %18, ptr noundef %19)
  %21 = icmp ne i32 %20, 0
  br i1 %21, label %22, label %23

22:                                               ; preds = %17
  store i32 -1, ptr %5, align 4
  store i32 1, ptr %11, align 4
  br label %145

23:                                               ; preds = %17
  %24 = load i8, ptr @preempt_send_user_signal, align 1, !range !8, !noundef !9
  %25 = trunc i8 %24 to i1
  br i1 %25, label %26, label %41

26:                                               ; preds = %23
  %27 = load ptr, ptr %6, align 8
  %28 = getelementptr inbounds nuw %struct.job_record, ptr %27, i32 0, i32 52
  %29 = load ptr, ptr %28, align 8
  %30 = icmp ne ptr %29, null
  br i1 %30, label %31, label %36

31:                                               ; preds = %26
  %32 = load ptr, ptr %6, align 8
  %33 = getelementptr inbounds nuw %struct.job_record, ptr %32, i32 0, i32 52
  %34 = load ptr, ptr %33, align 8
  %35 = call i32 @list_for_each(ptr noundef %34, ptr noundef @_job_warn_signal_wrapper, ptr noundef %9)
  br label %40

36:                                               ; preds = %26
  %37 = load ptr, ptr %6, align 8
  %38 = load i8, ptr %9, align 1, !range !8, !noundef !9
  %39 = trunc i8 %38 to i1
  call void @send_job_warn_signal(ptr noundef %37, i1 noundef zeroext %39)
  br label %40

40:                                               ; preds = %36, %31
  br label %41

41:                                               ; preds = %40, %23
  %42 = load i16, ptr %8, align 2
  %43 = zext i16 %42 to i32
  %44 = icmp eq i32 %43, 8
  br i1 %44, label %45, label %73

45:                                               ; preds = %41
  %46 = load ptr, ptr %6, align 8
  %47 = getelementptr inbounds nuw %struct.job_record, ptr %46, i32 0, i32 52
  %48 = load ptr, ptr %47, align 8
  %49 = icmp ne ptr %48, null
  br i1 %49, label %50, label %53

50:                                               ; preds = %45
  %51 = load ptr, ptr %6, align 8
  %52 = call i32 @het_job_signal(ptr noundef %51, i16 noundef zeroext 9, i16 noundef zeroext 0, i32 noundef 0, i1 noundef zeroext true)
  store i32 %52, ptr %10, align 4
  br label %56

53:                                               ; preds = %45
  %54 = load ptr, ptr %6, align 8
  %55 = call i32 @job_signal(ptr noundef %54, i16 noundef zeroext 9, i16 noundef zeroext 0, i32 noundef 0, i1 noundef zeroext true)
  store i32 %55, ptr %10, align 4
  br label %56

56:                                               ; preds = %53, %50
  %57 = load i32, ptr %10, align 4
  %58 = icmp eq i32 %57, 0
  br i1 %58, label %59, label %72

59:                                               ; preds = %56
  br label %60

60:                                               ; preds = %59
  br label %61

61:                                               ; preds = %60
  %62 = call i32 @get_log_level()
  %63 = icmp sge i32 %62, 3
  br i1 %63, label %64, label %67

64:                                               ; preds = %61
  %65 = load ptr, ptr %6, align 8
  %66 = load ptr, ptr %7, align 8
  call void (i32, ptr, ...) @log_var(i32 noundef 3, ptr noundef @.str.11, ptr noundef %65, ptr noundef %66)
  br label %67

67:                                               ; preds = %64, %61
  br label %68

68:                                               ; preds = %67
  br label %69

69:                                               ; preds = %68
  br label %70

70:                                               ; preds = %69
  br label %71

71:                                               ; preds = %70
  br label %72

72:                                               ; preds = %71, %56
  br label %99

73:                                               ; preds = %41
  %74 = load i16, ptr %8, align 2
  %75 = zext i16 %74 to i32
  %76 = icmp eq i32 %75, 2
  br i1 %76, label %77, label %98

77:                                               ; preds = %73
  %78 = load ptr, ptr %6, align 8
  %79 = getelementptr inbounds nuw %struct.job_record, ptr %78, i32 0, i32 53
  %80 = load i32, ptr %79, align 8
  %81 = call i32 @job_requeue(i32 noundef 0, i32 noundef %80, ptr noundef null, i1 noundef zeroext true, i32 noundef 0)
  store i32 %81, ptr %10, align 4
  %82 = load i32, ptr %10, align 4
  %83 = icmp eq i32 %82, 0
  br i1 %83, label %84, label %97

84:                                               ; preds = %77
  br label %85

85:                                               ; preds = %84
  br label %86

86:                                               ; preds = %85
  %87 = call i32 @get_log_level()
  %88 = icmp sge i32 %87, 3
  br i1 %88, label %89, label %92

89:                                               ; preds = %86
  %90 = load ptr, ptr %6, align 8
  %91 = load ptr, ptr %7, align 8
  call void (i32, ptr, ...) @log_var(i32 noundef 3, ptr noundef @.str.12, ptr noundef %90, ptr noundef %91)
  br label %92

92:                                               ; preds = %89, %86
  br label %93

93:                                               ; preds = %92
  br label %94

94:                                               ; preds = %93
  br label %95

95:                                               ; preds = %94
  br label %96

96:                                               ; preds = %95
  br label %97

97:                                               ; preds = %96, %77
  br label %98

98:                                               ; preds = %97, %73
  br label %99

99:                                               ; preds = %98, %72
  %100 = load i32, ptr %10, align 4
  %101 = icmp ne i32 %100, 0
  br i1 %101, label %102, label %143

102:                                              ; preds = %99
  %103 = load ptr, ptr %6, align 8
  %104 = getelementptr inbounds nuw %struct.job_record, ptr %103, i32 0, i32 52
  %105 = load ptr, ptr %104, align 8
  %106 = icmp ne ptr %105, null
  br i1 %106, label %107, label %110

107:                                              ; preds = %102
  %108 = load ptr, ptr %6, align 8
  %109 = call i32 @het_job_signal(ptr noundef %108, i16 noundef zeroext 9, i16 noundef zeroext 0, i32 noundef 0, i1 noundef zeroext true)
  store i32 %109, ptr %10, align 4
  br label %113

110:                                              ; preds = %102
  %111 = load ptr, ptr %6, align 8
  %112 = call i32 @job_signal(ptr noundef %111, i16 noundef zeroext 9, i16 noundef zeroext 0, i32 noundef 0, i1 noundef zeroext true)
  store i32 %112, ptr %10, align 4
  br label %113

113:                                              ; preds = %110, %107
  %114 = load i32, ptr %10, align 4
  %115 = icmp eq i32 %114, 0
  br i1 %115, label %116, label %128

116:                                              ; preds = %113
  br label %117

117:                                              ; preds = %116
  br label %118

118:                                              ; preds = %117
  %119 = call i32 @get_log_level()
  %120 = icmp sge i32 %119, 3
  br i1 %120, label %121, label %123

121:                                              ; preds = %118
  %122 = load ptr, ptr %6, align 8
  call void (i32, ptr, ...) @log_var(i32 noundef 3, ptr noundef @.str.13, ptr noundef @__func__.slurm_job_preempt, ptr noundef %122)
  br label %123

123:                                              ; preds = %121, %118
  br label %124

124:                                              ; preds = %123
  br label %125

125:                                              ; preds = %124
  br label %126

126:                                              ; preds = %125
  br label %127

127:                                              ; preds = %126
  br label %142

128:                                              ; preds = %113
  br label %129

129:                                              ; preds = %128
  br label %130

130:                                              ; preds = %129
  %131 = call i32 @get_log_level()
  %132 = icmp sge i32 %131, 3
  br i1 %132, label %133, label %137

133:                                              ; preds = %130
  %134 = load ptr, ptr %6, align 8
  %135 = load i32, ptr %10, align 4
  %136 = call ptr @slurm_strerror(i32 noundef %135)
  call void (i32, ptr, ...) @log_var(i32 noundef 3, ptr noundef @.str.14, ptr noundef @__func__.slurm_job_preempt, ptr noundef %134, ptr noundef %136)
  br label %137

137:                                              ; preds = %133, %130
  br label %138

138:                                              ; preds = %137
  br label %139

139:                                              ; preds = %138
  br label %140

140:                                              ; preds = %139
  br label %141

141:                                              ; preds = %140
  br label %142

142:                                              ; preds = %141, %127
  br label %143

143:                                              ; preds = %142, %99
  %144 = load i32, ptr %10, align 4
  store i32 %144, ptr %5, align 4
  store i32 1, ptr %11, align 4
  br label %145

145:                                              ; preds = %143, %22, %15
  call void @llvm.lifetime.end.p0(i64 4, ptr %10) #6
  %146 = load i32, ptr %5, align 4
  ret i32 %146
}