; Function Attrs: nounwind uwtable
define dso_local i32 @slurm_job_preempt(ptr noundef %0, ptr noundef %1, i16 noundef zeroext %2, i1 noundef zeroext %3) local_unnamed_addr #0 {
  %5 = alloca i8, align 1
  %6 = zext i1 %3 to i8
  store i8 %6, ptr %5, align 1
  %7 = load i32, ptr @plugin_inited, align 4
  %8 = icmp eq i32 %7, 1
  br i1 %8, label %.critedge, label %9

9:                                                ; preds = %4
  %10 = getelementptr inbounds nuw i8, ptr %0, i64 384
  %11 = load ptr, ptr %10, align 8
  %.not.i = icmp eq ptr %11, null
  br i1 %.not.i, label %_job_check_grace.exit, label %12

12:                                               ; preds = %9
  %13 = tail call i32 @list_for_each_nobreak(ptr noundef nonnull %11, ptr noundef nonnull @_job_check_grace_internal, ptr noundef %1) #8
  %14 = icmp sgt i32 %13, 0
  br i1 %14, label %17, label %.critedge

_job_check_grace.exit:                            ; preds = %9
  %15 = tail call i32 @_job_check_grace_internal(ptr noundef nonnull %0, ptr noundef %1)
  %16 = icmp sgt i32 %15, -1
  br i1 %16, label %17, label %.critedge

17:                                               ; preds = %12, %_job_check_grace.exit
  %18 = load i8, ptr @preempt_send_user_signal, align 1, !range !8, !noundef !9
  %19 = trunc nuw i8 %18 to i1
  br i1 %19, label %20, label %25

20:                                               ; preds = %17
  %21 = load ptr, ptr %10, align 8
  %.not32 = icmp eq ptr %21, null
  br i1 %.not32, label %24, label %22

22:                                               ; preds = %20
  %23 = call i32 @list_for_each(ptr noundef nonnull %21, ptr noundef nonnull @_job_warn_signal_wrapper, ptr noundef nonnull %5) #8
  br label %25

24:                                               ; preds = %20
  tail call void @send_job_warn_signal(ptr noundef nonnull %0, i1 noundef zeroext %3) #8
  br label %25

25:                                               ; preds = %22, %24, %17
  switch i16 %2, label %47 [
    i16 8, label %26
    i16 2, label %38
  ]

26:                                               ; preds = %25
  %27 = load ptr, ptr %10, align 8
  %.not33 = icmp eq ptr %27, null
  br i1 %.not33, label %30, label %28

28:                                               ; preds = %26
  %29 = call i32 @het_job_signal(ptr noundef nonnull %0, i16 noundef zeroext 9, i16 noundef zeroext 0, i32 noundef 0, i1 noundef zeroext true) #8
  br label %32

30:                                               ; preds = %26
  %31 = call i32 @job_signal(ptr noundef nonnull %0, i16 noundef zeroext 9, i16 noundef zeroext 0, i32 noundef 0, i1 noundef zeroext true) #8
  br label %32

32:                                               ; preds = %30, %28
  %.0 = phi i32 [ %29, %28 ], [ %31, %30 ]
  %33 = icmp eq i32 %.0, 0
  br i1 %33, label %34, label %47

34:                                               ; preds = %32
  %35 = call i32 @get_log_level() #8
  %36 = icmp sgt i32 %35, 2
  br i1 %36, label %37, label %.critedge

37:                                               ; preds = %34
  call void (i32, ptr, ...) @log_var(i32 noundef 3, ptr noundef nonnull @.str.11, ptr noundef nonnull %0, ptr noundef %1) #8
  br label %.critedge

38:                                               ; preds = %25
  %39 = getelementptr inbounds nuw i8, ptr %0, i64 392
  %40 = load i32, ptr %39, align 8
  %41 = call i32 @job_requeue(i32 noundef 0, i32 noundef %40, ptr noundef null, i1 noundef zeroext true, i32 noundef 0) #8
  %42 = icmp eq i32 %41, 0
  br i1 %42, label %43, label %47

43:                                               ; preds = %38
  %44 = call i32 @get_log_level() #8
  %45 = icmp sgt i32 %44, 2
  br i1 %45, label %46, label %.critedge

46:                                               ; preds = %43
  call void (i32, ptr, ...) @log_var(i32 noundef 3, ptr noundef nonnull @.str.12, ptr noundef nonnull %0, ptr noundef %1) #8
  br label %.critedge

47:                                               ; preds = %32, %38, %25
  %48 = load ptr, ptr %10, align 8
  %.not35 = icmp eq ptr %48, null
  br i1 %.not35, label %51, label %49

49:                                               ; preds = %47
  %50 = call i32 @het_job_signal(ptr noundef nonnull %0, i16 noundef zeroext 9, i16 noundef zeroext 0, i32 noundef 0, i1 noundef zeroext true) #8
  br label %53

51:                                               ; preds = %47
  %52 = call i32 @job_signal(ptr noundef nonnull %0, i16 noundef zeroext 9, i16 noundef zeroext 0, i32 noundef 0, i1 noundef zeroext true) #8
  br label %53

53:                                               ; preds = %51, %49
  %.3 = phi i32 [ %50, %49 ], [ %52, %51 ]
  %54 = icmp eq i32 %.3, 0
  %55 = call i32 @get_log_level() #8
  %56 = icmp sgt i32 %55, 2
  br i1 %54, label %57, label %59

57:                                               ; preds = %53
  br i1 %56, label %58, label %.critedge

58:                                               ; preds = %57
  call void (i32, ptr, ...) @log_var(i32 noundef 3, ptr noundef nonnull @.str.13, ptr noundef nonnull @__func__.slurm_job_preempt, ptr noundef nonnull %0) #8
  br label %.critedge

59:                                               ; preds = %53
  br i1 %56, label %60, label %.critedge

60:                                               ; preds = %59
  %61 = call ptr @slurm_strerror(i32 noundef %.3) #8
  call void (i32, ptr, ...) @log_var(i32 noundef 3, ptr noundef nonnull @.str.14, ptr noundef nonnull @__func__.slurm_job_preempt, ptr noundef nonnull %0, ptr noundef %61) #8
  br label %.critedge

.critedge:                                        ; preds = %12, %59, %60, %57, %58, %43, %46, %34, %37, %_job_check_grace.exit, %4
  %.027 = phi i32 [ -1, %4 ], [ -1, %_job_check_grace.exit ], [ 0, %58 ], [ 0, %57 ], [ %.3, %60 ], [ %.3, %59 ], [ 0, %43 ], [ 0, %46 ], [ 0, %34 ], [ 0, %37 ], [ -1, %12 ]
  ret i32 %.027
}